target datalayout = "e-m:e-p270:32:32-p271:32:32-p272:64:64-i64:64-i128:128-f80:128-n8:16:32:64-S128"
target triple = "x86_64-pc-linux-gnu"

%"class.std::vector.10" = type { %"struct.std::_Vector_base.11" }
%"struct.std::_Vector_base.11" = type { %"struct.std::_Vector_base<ZXing::Result, std::allocator<ZXing::Result>>::_Vector_impl" }
%"struct.std::_Vector_base<ZXing::Result, std::allocator<ZXing::Result>>::_Vector_impl" = type { %"struct.std::_Vector_base<ZXing::Result, std::allocator<ZXing::Result>>::_Vector_impl_data" }
%"struct.std::_Vector_base<ZXing::Result, std::allocator<ZXing::Result>>::_Vector_impl_data" = type { ptr, ptr, ptr }
%"class.ZXing::Reader" = type <{ ptr, ptr, i8, [7 x i8] }>

; Function Attrs: mustprogress nounwind uwtable
define linkonce_odr noundef zeroext i1 @_ZNK5ZXing13ReaderOptions12returnErrorsEv(ptr noundef nonnull align 4 dereferenceable(12) %0) #1 comdat align 2 {
  %2 = alloca ptr, align 8
  store ptr %0, ptr %2, align 8
  %3 = load ptr, ptr %2, align 8
  %4 = load i32, ptr %3, align 4
  %5 = lshr i32 %4, 9
  %6 = and i32 %5, 1
  %7 = trunc i32 %6 to i1
  ret i1 %7
}

; Function Attrs: mustprogress nounwind uwtable
define linkonce_odr noundef zeroext i1 @_ZNK5ZXing13ReaderOptions9tryRotateEv(ptr noundef nonnull align 4 dereferenceable(12) %0) #1 comdat align 2 {
  %2 = alloca ptr, align 8
  store ptr %0, ptr %2, align 8
  %3 = load ptr, ptr %2, align 8
  %4 = load i32, ptr %3, align 4
  %5 = lshr i32 %4, 1
  %6 = and i32 %5, 1
  %7 = trunc i32 %6 to i1
  ret i1 %7
}

; Function Attrs: mustprogress uwtable
define void @_ZNK5ZXing6Pdf4176Reader6decodeERKNS_12BinaryBitmapEi(ptr dead_on_unwind noalias writable sret(%"class.std::vector.10") align 8 %0, ptr noundef nonnull align 8 dereferenceable(17) %1, ptr noundef nonnull align 8 dereferenceable(56) %2, i32 noundef %3) unnamed_addr #0 align 2 {
  %5 = alloca ptr, align 8
  %6 = alloca ptr, align 8
  %7 = alloca ptr, align 8
  %8 = alloca i32, align 4
  store ptr %0, ptr %5, align 8
  store ptr %1, ptr %6, align 8
  store ptr %2, ptr %7, align 8
  store i32 %3, ptr %8, align 4
  %9 = load ptr, ptr %6, align 8
  %10 = load ptr, ptr %7, align 8
  %11 = getelementptr inbounds %"class.ZXing::Reader", ptr %9, i32 0, i32 1
  %12 = load ptr, ptr %11, align 8
  %13 = call noundef zeroext i1 @_ZNK5ZXing13ReaderOptions9tryRotateEv(ptr noundef nonnull align 4 dereferenceable(12) %12) #12
  %14 = getelementptr inbounds %"class.ZXing::Reader", ptr %9, i32 0, i32 1
  %15 = load ptr, ptr %14, align 8
  %16 = call noundef zeroext i1 @_ZNK5ZXing13ReaderOptions12returnErrorsEv(ptr noundef nonnull align 4 dereferenceable(12) %15) #12
  call void @_ZN5ZXing6Pdf417L8DoDecodeERKNS_12BinaryBitmapEbbb(ptr dead_on_unwind writable sret(%"class.std::vector.10") align 8 %0, ptr noundef nonnull align 8 dereferenceable(56) %10, i1 noundef zeroext true, i1 noundef zeroext %13, i1 noundef zeroext %16)
  ret void
}