; Function Attrs: mustprogress uwtable
define void @_ZNK5ZXing6Pdf4176Reader6decodeERKNS_12BinaryBitmapEi(ptr dead_on_unwind noalias writable sret(%"class.std::vector.10") align 8 %0, ptr nocapture noundef nonnull readonly align 8 dereferenceable(17) %1, ptr noundef nonnull align 8 dereferenceable(56) %2, i32 %3) unnamed_addr #0 align 2 {
  %5 = getelementptr inbounds i8, ptr %1, i64 8
  %6 = load ptr, ptr %5, align 8
  %7 = load i32, ptr %6, align 4
  %8 = and i32 %7, 2
  %9 = icmp ne i32 %8, 0
  %10 = and i32 %7, 512
  %11 = icmp ne i32 %10, 0
  tail call fastcc void @_ZN5ZXing6Pdf417L8DoDecodeERKNS_12BinaryBitmapEbbb(ptr dead_on_unwind noalias writable align 8 %0, ptr noundef nonnull align 8 dereferenceable(56) %2, i1 noundef zeroext true, i1 noundef zeroext %9, i1 noundef zeroext %11)
  ret void
}